; ModuleID = '7/1084.cpp'
source_filename = "7/1084.cpp"
target datalayout = "e-m:e-p270:32:32-p271:32:32-p272:64:64-i64:64-f80:128-n8:16:32:64-S128"
target triple = "x86_64-pc-linux-gnu"

%"class.std::ios_base::Init" = type { i8 }
%"class.std::basic_istream" = type { i32 (...)**, i64, %"class.std::basic_ios" }
%"class.std::basic_ios" = type { %"class.std::ios_base", %"class.std::basic_ostream"*, i8, i8, %"class.std::basic_streambuf"*, %"class.std::ctype"*, %"class.std::num_put"*, %"class.std::num_get"* }
%"class.std::ios_base" = type { i32 (...)**, i64, i64, i32, i32, i32, %"struct.std::ios_base::_Callback_list"*, %"struct.std::ios_base::_Words", [8 x %"struct.std::ios_base::_Words"], i32, %"struct.std::ios_base::_Words"*, %"class.std::locale" }
%"struct.std::ios_base::_Callback_list" = type { %"struct.std::ios_base::_Callback_list"*, void (i32, %"class.std::ios_base"*, i32)*, i32, i32 }
%"struct.std::ios_base::_Words" = type { i8*, i64 }
%"class.std::locale" = type { %"class.std::locale::_Impl"* }
%"class.std::locale::_Impl" = type { i32, %"class.std::locale::facet"**, i64, %"class.std::locale::facet"**, i8** }
%"class.std::locale::facet" = type <{ i32 (...)**, i32, [4 x i8] }>
%"class.std::basic_ostream" = type { i32 (...)**, %"class.std::basic_ios" }
%"class.std::basic_streambuf" = type { i32 (...)**, i8*, i8*, i8*, i8*, i8*, i8*, %"class.std::locale" }
%"class.std::ctype" = type <{ %"class.std::locale::facet.base", [4 x i8], %struct.__locale_struct*, i8, [7 x i8], i32*, i32*, i16*, i8, [256 x i8], [256 x i8], i8, [6 x i8] }>
%"class.std::locale::facet.base" = type <{ i32 (...)**, i32 }>
%struct.__locale_struct = type { [13 x %struct.__locale_data*], i16*, i32*, i32*, [13 x i8*] }
%struct.__locale_data = type opaque
%"class.std::num_put" = type { %"class.std::locale::facet.base", [4 x i8] }
%"class.std::num_get" = type { %"class.std::locale::facet.base", [4 x i8] }

@_ZStL8__ioinit = internal global %"class.std::ios_base::Init" zeroinitializer, align 1
@__dso_handle = external hidden global i8
@_ZSt3cin = external dso_local global %"class.std::basic_istream", align 8
@_ZSt4cout = external dso_local global %"class.std::basic_ostream", align 8
@llvm.global_ctors = appending global [1 x { i32, void ()*, i8* }] [{ i32, void ()*, i8* } { i32 65535, void ()* @_GLOBAL__sub_I_1084.cpp, i8* null }]

; Function Attrs: noinline uwtable
define internal void @__cxx_global_var_init() #0 section ".text.startup" {
  call void @_ZNSt8ios_base4InitC1Ev(%"class.std::ios_base::Init"* @_ZStL8__ioinit)
  %1 = call i32 @__cxa_atexit(void (i8*)* bitcast (void (%"class.std::ios_base::Init"*)* @_ZNSt8ios_base4InitD1Ev to void (i8*)*), i8* getelementptr inbounds (%"class.std::ios_base::Init", %"class.std::ios_base::Init"* @_ZStL8__ioinit, i32 0, i32 0), i8* @__dso_handle) #3
  ret void
}

declare dso_local void @_ZNSt8ios_base4InitC1Ev(%"class.std::ios_base::Init"*) unnamed_addr #1

; Function Attrs: nounwind
declare dso_local void @_ZNSt8ios_base4InitD1Ev(%"class.std::ios_base::Init"*) unnamed_addr #2

; Function Attrs: nounwind
declare dso_local i32 @__cxa_atexit(void (i8*)*, i8*, i8*) #3

; Function Attrs: noinline nounwind uwtable
define dso_local i32 @_Z3cmpii(i32 %0, i32 %1) #4 {
  %3 = alloca i32, align 4
  %4 = alloca i32, align 4
  %5 = alloca i32, align 4
  store i32 %0, i32* %4, align 4
  store i32 %1, i32* %5, align 4
  %6 = load i32, i32* %4, align 4
  %7 = load i32, i32* %5, align 4
  %8 = icmp sgt i32 %6, %7
  br i1 %8, label %9, label %10

9:                                                ; preds = %2
  store i32 1, i32* %3, align 4
  br label %11

10:                                               ; preds = %2
  store i32 0, i32* %3, align 4
  br label %11

11:                                               ; preds = %10, %9
  %12 = load i32, i32* %3, align 4
  ret i32 %12
}

; Function Attrs: noinline norecurse uwtable
define dso_local i32 @main() #5 {
  %1 = alloca i32, align 4
  %2 = alloca [260 x i8], align 16
  %3 = alloca [260 x i8], align 16
  %4 = alloca [260 x i8], align 16
  %5 = alloca i32, align 4
  %6 = alloca i32, align 4
  %7 = alloca i32, align 4
  %8 = alloca i32, align 4
  %9 = alloca i32, align 4
  %10 = alloca i32, align 4
  %11 = alloca i32, align 4
  store i32 0, i32* %1, align 4
  %12 = getelementptr inbounds [260 x i8], [260 x i8]* %2, i64 0, i64 0
  %13 = call dereferenceable(280) %"class.std::basic_istream"* @_ZStrsIcSt11char_traitsIcEERSt13basic_istreamIT_T0_ES6_PS3_(%"class.std::basic_istream"* dereferenceable(280) @_ZSt3cin, i8* %12)
  %14 = getelementptr inbounds [260 x i8], [260 x i8]* %3, i64 0, i64 0
  %15 = call dereferenceable(280) %"class.std::basic_istream"* @_ZStrsIcSt11char_traitsIcEERSt13basic_istreamIT_T0_ES6_PS3_(%"class.std::basic_istream"* dereferenceable(280) %13, i8* %14)
  %16 = getelementptr inbounds [260 x i8], [260 x i8]* %4, i64 0, i64 0
  %17 = call dereferenceable(280) %"class.std::basic_istream"* @_ZStrsIcSt11char_traitsIcEERSt13basic_istreamIT_T0_ES6_PS3_(%"class.std::basic_istream"* dereferenceable(280) %15, i8* %16)
  %18 = getelementptr inbounds [260 x i8], [260 x i8]* %3, i64 0, i64 0
  %19 = call i64 @strlen(i8* %18) #7
  %20 = trunc i64 %19 to i32
  store i32 %20, i32* %5, align 4
  %21 = getelementptr inbounds [260 x i8], [260 x i8]* %2, i64 0, i64 0
  %22 = call i64 @strlen(i8* %21) #7
  %23 = trunc i64 %22 to i32
  store i32 %23, i32* %6, align 4
  store i32 0, i32* %8, align 4
  br label %24

24:                                               ; preds = %58, %0
  %25 = load i32, i32* %8, align 4
  %26 = load i32, i32* %6, align 4
  %27 = icmp slt i32 %25, %26
  br i1 %27, label %28, label %61

28:                                               ; preds = %24
  store i32 0, i32* %7, align 4
  br label %29

29:                                               ; preds = %49, %28
  %30 = load i32, i32* %7, align 4
  %31 = sext i32 %30 to i64
  %32 = getelementptr inbounds [260 x i8], [260 x i8]* %3, i64 0, i64 %31
  %33 = load i8, i8* %32, align 1
  %34 = sext i8 %33 to i32
  %35 = load i32, i32* %8, align 4
  %36 = load i32, i32* %7, align 4
  %37 = add nsw i32 %35, %36
  %38 = sext i32 %37 to i64
  %39 = getelementptr inbounds [260 x i8], [260 x i8]* %2, i64 0, i64 %38
  %40 = load i8, i8* %39, align 1
  %41 = sext i8 %40 to i32
  %42 = icmp eq i32 %34, %41
  br i1 %42, label %43, label %47

43:                                               ; preds = %29
  %44 = load i32, i32* %7, align 4
  %45 = load i32, i32* %5, align 4
  %46 = icmp slt i32 %44, %45
  br label %47

47:                                               ; preds = %43, %29
  %48 = phi i1 [ false, %29 ], [ %46, %43 ]
  br i1 %48, label %49, label %52

49:                                               ; preds = %47
  %50 = load i32, i32* %7, align 4
  %51 = add nsw i32 %50, 1
  store i32 %51, i32* %7, align 4
  br label %29

52:                                               ; preds = %47
  %53 = load i32, i32* %7, align 4
  %54 = load i32, i32* %5, align 4
  %55 = icmp eq i32 %53, %54
  br i1 %55, label %56, label %57

56:                                               ; preds = %52
  br label %61

57:                                               ; preds = %52
  br label %58

58:                                               ; preds = %57
  %59 = load i32, i32* %8, align 4
  %60 = add nsw i32 %59, 1
  store i32 %60, i32* %8, align 4
  br label %24

61:                                               ; preds = %56, %24
  %62 = load i32, i32* %8, align 4
  %63 = load i32, i32* %6, align 4
  %64 = icmp eq i32 %62, %63
  br i1 %64, label %65, label %80

65:                                               ; preds = %61
  store i32 0, i32* %9, align 4
  br label %66

66:                                               ; preds = %76, %65
  %67 = load i32, i32* %9, align 4
  %68 = load i32, i32* %6, align 4
  %69 = icmp slt i32 %67, %68
  br i1 %69, label %70, label %79

70:                                               ; preds = %66
  %71 = load i32, i32* %9, align 4
  %72 = sext i32 %71 to i64
  %73 = getelementptr inbounds [260 x i8], [260 x i8]* %2, i64 0, i64 %72
  %74 = load i8, i8* %73, align 1
  %75 = call dereferenceable(272) %"class.std::basic_ostream"* @_ZStlsISt11char_traitsIcEERSt13basic_ostreamIcT_ES5_c(%"class.std::basic_ostream"* dereferenceable(272) @_ZSt4cout, i8 signext %74)
  br label %76

76:                                               ; preds = %70
  %77 = load i32, i32* %9, align 4
  %78 = add nsw i32 %77, 1
  store i32 %78, i32* %9, align 4
  br label %66

79:                                               ; preds = %66
  store i32 0, i32* %1, align 4
  br label %117

80:                                               ; preds = %61
  store i32 0, i32* %10, align 4
  br label %81

81:                                               ; preds = %91, %80
  %82 = load i32, i32* %10, align 4
  %83 = load i32, i32* %8, align 4
  %84 = icmp slt i32 %82, %83
  br i1 %84, label %85, label %94

85:                                               ; preds = %81
  %86 = load i32, i32* %10, align 4
  %87 = sext i32 %86 to i64
  %88 = getelementptr inbounds [260 x i8], [260 x i8]* %2, i64 0, i64 %87
  %89 = load i8, i8* %88, align 1
  %90 = call dereferenceable(272) %"class.std::basic_ostream"* @_ZStlsISt11char_traitsIcEERSt13basic_ostreamIcT_ES5_c(%"class.std::basic_ostream"* dereferenceable(272) @_ZSt4cout, i8 signext %89)
  br label %91

91:                                               ; preds = %85
  %92 = load i32, i32* %10, align 4
  %93 = add nsw i32 %92, 1
  store i32 %93, i32* %10, align 4
  br label %81

94:                                               ; preds = %81
  %95 = getelementptr inbounds [260 x i8], [260 x i8]* %4, i64 0, i64 0
  %96 = call dereferenceable(272) %"class.std::basic_ostream"* @_ZStlsISt11char_traitsIcEERSt13basic_ostreamIcT_ES5_PKc(%"class.std::basic_ostream"* dereferenceable(272) @_ZSt4cout, i8* %95)
  %97 = load i32, i32* %8, align 4
  %98 = sext i32 %97 to i64
  %99 = getelementptr inbounds [260 x i8], [260 x i8]* %3, i64 0, i64 0
  %100 = call i64 @strlen(i8* %99) #7
  %101 = add i64 %98, %100
  %102 = trunc i64 %101 to i32
  store i32 %102, i32* %11, align 4
  br label %103

103:                                              ; preds = %113, %94
  %104 = load i32, i32* %11, align 4
  %105 = load i32, i32* %6, align 4
  %106 = icmp slt i32 %104, %105
  br i1 %106, label %107, label %116

107:                                              ; preds = %103
  %108 = load i32, i32* %11, align 4
  %109 = sext i32 %108 to i64
  %110 = getelementptr inbounds [260 x i8], [260 x i8]* %2, i64 0, i64 %109
  %111 = load i8, i8* %110, align 1
  %112 = call dereferenceable(272) %"class.std::basic_ostream"* @_ZStlsISt11char_traitsIcEERSt13basic_ostreamIcT_ES5_c(%"class.std::basic_ostream"* dereferenceable(272) @_ZSt4cout, i8 signext %111)
  br label %113

113:                                              ; preds = %107
  %114 = load i32, i32* %11, align 4
  %115 = add nsw i32 %114, 1
  store i32 %115, i32* %11, align 4
  br label %103

116:                                              ; preds = %103
  store i32 0, i32* %1, align 4
  br label %117

117:                                              ; preds = %116, %79
  %118 = load i32, i32* %1, align 4
  ret i32 %118
}

declare dso_local dereferenceable(280) %"class.std::basic_istream"* @_ZStrsIcSt11char_traitsIcEERSt13basic_istreamIT_T0_ES6_PS3_(%"class.std::basic_istream"* dereferenceable(280), i8*) #1

; Function Attrs: nounwind readonly
declare dso_local i64 @strlen(i8*) #6

declare dso_local dereferenceable(272) %"class.std::basic_ostream"* @_ZStlsISt11char_traitsIcEERSt13basic_ostreamIcT_ES5_c(%"class.std::basic_ostream"* dereferenceable(272), i8 signext) #1

declare dso_local dereferenceable(272) %"class.std::basic_ostream"* @_ZStlsISt11char_traitsIcEERSt13basic_ostreamIcT_ES5_PKc(%"class.std::basic_ostream"* dereferenceable(272), i8*) #1

; Function Attrs: noinline uwtable
define internal void @_GLOBAL__sub_I_1084.cpp() #0 section ".text.startup" {
  call void @__cxx_global_var_init()
  ret void
}


!llvm.module.flags = !{!0}
!llvm.ident = !{!1}

!0 = !{i32 1, !"wchar_size", i32 4}
!1 = !{!"clang version 10.0.0-4ubuntu1 "}
