; ModuleID = 'source-C-CXX/6/1084.cpp'
source_filename = "source-C-CXX/6/1084.cpp"
target datalayout = "e-m:e-p270:32:32-p271:32:32-p272:64:64-i64:64-f80:128-n8:16:32:64-S128"
target triple = "x86_64-pc-linux-gnu"

%"class.std::ios_base::Init" = type { i8 }
%"class.std::basic_istream" = type { i32 (...)**, i64, %"class.std::basic_ios" }
%"class.std::basic_ios" = type { %"class.std::ios_base", %"class.std::basic_ostream"*, i8, i8, %"class.std::basic_streambuf"*, %"class.std::ctype"*, %"class.std::num_put"*, %"class.std::num_get"* }
%"class.std::ios_base" = type { i32 (...)**, i64, i64, i32, i32, i32, %"struct.std::ios_base::_Callback_list"*, %"struct.std::ios_base::_Words", [8 x %"struct.std::ios_base::_Words"], i32, %"struct.std::ios_base::_Words"*, %"class.std::locale" }
%"struct.std::ios_base::_Callback_list" = type { %"struct.std::ios_base::_Callback_list"*, void (i32, %"class.std::ios_base"*, i32)*, i32, i32 }
%"struct.std::ios_base::_Words" = type { i8*, i64 }
%"class.std::locale" = type { %"class.std::locale::_Impl"* }
%"class.std::locale::_Impl" = type { i32, %"class.std::locale::facet"**, i64, %"class.std::locale::facet"**, i8** }
%"class.std::locale::facet" = type <{ i32 (...)**, i32, [4 x i8] }>
%"class.std::basic_ostream" = type { i32 (...)**, %"class.std::basic_ios" }
%"class.std::basic_streambuf" = type { i32 (...)**, i8*, i8*, i8*, i8*, i8*, i8*, %"class.std::locale" }
%"class.std::ctype" = type <{ %"class.std::locale::facet.base", [4 x i8], %struct.__locale_struct*, i8, [7 x i8], i32*, i32*, i16*, i8, [256 x i8], [256 x i8], i8, [6 x i8] }>
%"class.std::locale::facet.base" = type <{ i32 (...)**, i32 }>
%struct.__locale_struct = type { [13 x %struct.__locale_data*], i16*, i32*, i32*, [13 x i8*] }
%struct.__locale_data = type opaque
%"class.std::num_put" = type { %"class.std::locale::facet.base", [4 x i8] }
%"class.std::num_get" = type { %"class.std::locale::facet.base", [4 x i8] }

@_ZStL8__ioinit = internal global %"class.std::ios_base::Init" zeroinitializer, align 1
@__dso_handle = external hidden global i8
@_ZSt3cin = external global %"class.std::basic_istream", align 8
@_ZSt4cout = external global %"class.std::basic_ostream", align 8
@llvm.global_ctors = appending global [1 x { i32, void ()*, i8* }] [{ i32, void ()*, i8* } { i32 65535, void ()* @_GLOBAL__sub_I_1084.cpp, i8* null }]

declare void @_ZNSt8ios_base4InitC1Ev(%"class.std::ios_base::Init"* nonnull align 1 dereferenceable(1)) unnamed_addr #0

; Function Attrs: nounwind
declare void @_ZNSt8ios_base4InitD1Ev(%"class.std::ios_base::Init"* nonnull align 1 dereferenceable(1)) unnamed_addr #1

; Function Attrs: nofree nounwind
declare i32 @__cxa_atexit(void (i8*)*, i8*, i8*) local_unnamed_addr #2

; Function Attrs: mustprogress nofree norecurse nosync nounwind readnone sspstrong uwtable willreturn
define dso_local i32 @_Z3cmpii(i32 %0, i32 %1) local_unnamed_addr #3 {
  %3 = icmp sgt i32 %0, %1
  %4 = zext i1 %3 to i32
  ret i32 %4
}

; Function Attrs: mustprogress norecurse sspstrong uwtable
define dso_local i32 @main() local_unnamed_addr #4 {
  %1 = alloca i8, align 1
  %2 = alloca i8, align 1
  %3 = alloca i8, align 1
  %4 = alloca [260 x i8], align 16
  %5 = alloca [260 x i8], align 16
  %6 = alloca [260 x i8], align 16
  %7 = getelementptr inbounds [260 x i8], [260 x i8]* %4, i64 0, i64 0
  call void @llvm.lifetime.start.p0i8(i64 260, i8* nonnull %7) #8
  %8 = getelementptr inbounds [260 x i8], [260 x i8]* %5, i64 0, i64 0
  call void @llvm.lifetime.start.p0i8(i64 260, i8* nonnull %8) #8
  %9 = getelementptr inbounds [260 x i8], [260 x i8]* %6, i64 0, i64 0
  call void @llvm.lifetime.start.p0i8(i64 260, i8* nonnull %9) #8
  call void @_ZSt17__istream_extractRSiPcl(%"class.std::basic_istream"* nonnull align 8 dereferenceable(16) @_ZSt3cin, i8* nonnull %7, i64 260)
  call void @_ZSt17__istream_extractRSiPcl(%"class.std::basic_istream"* nonnull align 8 dereferenceable(16) @_ZSt3cin, i8* nonnull %8, i64 260)
  call void @_ZSt17__istream_extractRSiPcl(%"class.std::basic_istream"* nonnull align 8 dereferenceable(16) @_ZSt3cin, i8* nonnull %9, i64 260)
  %10 = call i64 @strlen(i8* noundef nonnull %8) #9
  %11 = trunc i64 %10 to i32
  %12 = call i64 @strlen(i8* noundef nonnull %7) #9
  %13 = trunc i64 %12 to i32
  %14 = icmp sgt i32 %13, 0
  br i1 %14, label %15, label %41

15:                                               ; preds = %0
  %16 = shl i64 %10, 32
  %17 = ashr exact i64 %16, 32
  %18 = and i64 %12, 4294967295
  br label %19

19:                                               ; preds = %15, %35
  %20 = phi i64 [ 0, %15 ], [ %36, %35 ]
  br label %21

21:                                               ; preds = %21, %19
  %22 = phi i64 [ %31, %21 ], [ 0, %19 ]
  %23 = getelementptr inbounds [260 x i8], [260 x i8]* %5, i64 0, i64 %22
  %24 = load i8, i8* %23, align 1, !tbaa !5
  %25 = add nuw nsw i64 %22, %20
  %26 = getelementptr inbounds [260 x i8], [260 x i8]* %4, i64 0, i64 %25
  %27 = load i8, i8* %26, align 1, !tbaa !5
  %28 = icmp eq i8 %24, %27
  %29 = icmp slt i64 %22, %17
  %30 = select i1 %28, i1 %29, i1 false
  %31 = add nuw nsw i64 %22, 1
  br i1 %30, label %21, label %32, !llvm.loop !8

32:                                               ; preds = %21
  %33 = trunc i64 %22 to i32
  %34 = icmp eq i32 %33, %11
  br i1 %34, label %38, label %35

35:                                               ; preds = %32
  %36 = add nuw nsw i64 %20, 1
  %37 = icmp eq i64 %36, %18
  br i1 %37, label %47, label %19, !llvm.loop !10

38:                                               ; preds = %32
  %39 = trunc i64 %20 to i32
  %40 = icmp eq i32 %39, %13
  br i1 %40, label %47, label %43

41:                                               ; preds = %0
  %42 = icmp eq i32 %13, 0
  br i1 %42, label %83, label %57

43:                                               ; preds = %38
  %44 = icmp eq i32 %39, 0
  br i1 %44, label %57, label %45

45:                                               ; preds = %43
  %46 = and i64 %20, 4294967295
  br label %69

47:                                               ; preds = %35, %38
  br i1 %14, label %48, label %83

48:                                               ; preds = %47
  %49 = and i64 %12, 4294967295
  br label %50

50:                                               ; preds = %48, %50
  %51 = phi i64 [ 0, %48 ], [ %55, %50 ]
  %52 = getelementptr inbounds [260 x i8], [260 x i8]* %4, i64 0, i64 %51
  %53 = load i8, i8* %52, align 1, !tbaa !5
  call void @llvm.lifetime.start.p0i8(i64 1, i8* nonnull %3)
  store i8 %53, i8* %3, align 1, !tbaa !5
  %54 = call nonnull align 8 dereferenceable(8) %"class.std::basic_ostream"* @_ZSt16__ostream_insertIcSt11char_traitsIcEERSt13basic_ostreamIT_T0_ES6_PKS3_l(%"class.std::basic_ostream"* nonnull align 8 dereferenceable(8) @_ZSt4cout, i8* nonnull %3, i64 1)
  call void @llvm.lifetime.end.p0i8(i64 1, i8* nonnull %3)
  %55 = add nuw nsw i64 %51, 1
  %56 = icmp eq i64 %55, %49
  br i1 %56, label %83, label %50, !llvm.loop !11

57:                                               ; preds = %69, %41, %43
  %58 = phi i32 [ 0, %43 ], [ 0, %41 ], [ %39, %69 ]
  %59 = call i64 @strlen(i8* noundef nonnull dereferenceable(1) %9) #8
  %60 = call nonnull align 8 dereferenceable(8) %"class.std::basic_ostream"* @_ZSt16__ostream_insertIcSt11char_traitsIcEERSt13basic_ostreamIT_T0_ES6_PKS3_l(%"class.std::basic_ostream"* nonnull align 8 dereferenceable(8) @_ZSt4cout, i8* nonnull %9, i64 %59)
  %61 = call i64 @strlen(i8* noundef nonnull %8) #9
  %62 = trunc i64 %61 to i32
  %63 = add i32 %58, %62
  %64 = icmp slt i32 %63, %13
  br i1 %64, label %65, label %83

65:                                               ; preds = %57
  %66 = sext i32 %63 to i64
  %67 = shl i64 %12, 32
  %68 = ashr exact i64 %67, 32
  br label %76

69:                                               ; preds = %45, %69
  %70 = phi i64 [ 0, %45 ], [ %74, %69 ]
  %71 = getelementptr inbounds [260 x i8], [260 x i8]* %4, i64 0, i64 %70
  %72 = load i8, i8* %71, align 1, !tbaa !5
  call void @llvm.lifetime.start.p0i8(i64 1, i8* nonnull %2)
  store i8 %72, i8* %2, align 1, !tbaa !5
  %73 = call nonnull align 8 dereferenceable(8) %"class.std::basic_ostream"* @_ZSt16__ostream_insertIcSt11char_traitsIcEERSt13basic_ostreamIT_T0_ES6_PKS3_l(%"class.std::basic_ostream"* nonnull align 8 dereferenceable(8) @_ZSt4cout, i8* nonnull %2, i64 1)
  call void @llvm.lifetime.end.p0i8(i64 1, i8* nonnull %2)
  %74 = add nuw nsw i64 %70, 1
  %75 = icmp eq i64 %74, %46
  br i1 %75, label %57, label %69, !llvm.loop !12

76:                                               ; preds = %65, %76
  %77 = phi i64 [ %66, %65 ], [ %81, %76 ]
  %78 = getelementptr inbounds [260 x i8], [260 x i8]* %4, i64 0, i64 %77
  %79 = load i8, i8* %78, align 1, !tbaa !5
  call void @llvm.lifetime.start.p0i8(i64 1, i8* nonnull %1)
  store i8 %79, i8* %1, align 1, !tbaa !5
  %80 = call nonnull align 8 dereferenceable(8) %"class.std::basic_ostream"* @_ZSt16__ostream_insertIcSt11char_traitsIcEERSt13basic_ostreamIT_T0_ES6_PKS3_l(%"class.std::basic_ostream"* nonnull align 8 dereferenceable(8) @_ZSt4cout, i8* nonnull %1, i64 1)
  call void @llvm.lifetime.end.p0i8(i64 1, i8* nonnull %1)
  %81 = add nsw i64 %77, 1
  %82 = icmp slt i64 %81, %68
  br i1 %82, label %76, label %83, !llvm.loop !13

83:                                               ; preds = %76, %50, %41, %57, %47
  call void @llvm.lifetime.end.p0i8(i64 260, i8* nonnull %9) #8
  call void @llvm.lifetime.end.p0i8(i64 260, i8* nonnull %8) #8
  call void @llvm.lifetime.end.p0i8(i64 260, i8* nonnull %7) #8
  ret i32 0
}

; Function Attrs: argmemonly mustprogress nofree nosync nounwind willreturn
declare void @llvm.lifetime.start.p0i8(i64 immarg, i8* nocapture) #5

; Function Attrs: argmemonly mustprogress nofree nounwind readonly willreturn
declare i64 @strlen(i8* nocapture) local_unnamed_addr #6

; Function Attrs: argmemonly mustprogress nofree nosync nounwind willreturn
declare void @llvm.lifetime.end.p0i8(i64 immarg, i8* nocapture) #5

declare void @_ZSt17__istream_extractRSiPcl(%"class.std::basic_istream"* nonnull align 8 dereferenceable(16), i8*, i64) local_unnamed_addr #0

declare nonnull align 8 dereferenceable(8) %"class.std::basic_ostream"* @_ZSt16__ostream_insertIcSt11char_traitsIcEERSt13basic_ostreamIT_T0_ES6_PKS3_l(%"class.std::basic_ostream"* nonnull align 8 dereferenceable(8), i8*, i64) local_unnamed_addr #0

; Function Attrs: sspstrong uwtable
define internal void @_GLOBAL__sub_I_1084.cpp() #7 section ".text.startup" {
  tail call void @_ZNSt8ios_base4InitC1Ev(%"class.std::ios_base::Init"* nonnull align 1 dereferenceable(1) @_ZStL8__ioinit)
  %1 = tail call i32 @__cxa_atexit(void (i8*)* bitcast (void (%"class.std::ios_base::Init"*)* @_ZNSt8ios_base4InitD1Ev to void (i8*)*), i8* getelementptr inbounds (%"class.std::ios_base::Init", %"class.std::ios_base::Init"* @_ZStL8__ioinit, i64 0, i32 0), i8* nonnull @__dso_handle) #8
  ret void
}


!llvm.module.flags = !{!0, !1, !2, !3}
!llvm.ident = !{!4}

!0 = !{i32 1, !"wchar_size", i32 4}
!1 = !{i32 7, !"PIC Level", i32 2}
!2 = !{i32 7, !"PIE Level", i32 2}
!3 = !{i32 7, !"uwtable", i32 1}
!4 = !{!"clang version 13.0.0"}
!5 = !{!6, !6, i64 0}
!6 = !{!"omnipotent char", !7, i64 0}
!7 = !{!"Simple C++ TBAA"}
!8 = distinct !{!8, !9}
!9 = !{!"llvm.loop.mustprogress"}
!10 = distinct !{!10, !9}
!11 = distinct !{!11, !9}
!12 = distinct !{!12, !9}
!13 = distinct !{!13, !9}
